; Function Attrs: mustprogress nofree norecurse nosync nounwind willreturn memory(read, inaccessiblemem: none) uwtable
define range(i32 0, 2) i32 @Gia_ManCounterExampleValueLookup(ptr noundef readonly captures(none) %0, i32 noundef %1, i32 noundef %2) local_unnamed_addr #7 {
  %4 = getelementptr inbounds nuw i8, ptr %0, i64 776
  %5 = load ptr, ptr %4, align 8, !tbaa !60
  %6 = getelementptr i8, ptr %0, i64 24
  %.val = load i32, ptr %6, align 8, !tbaa !38
  %7 = mul nsw i32 %.val, %2
  %8 = add nsw i32 %7, %1
  %9 = ashr i32 %8, 5
  %10 = sext i32 %9 to i64
  %11 = getelementptr inbounds i32, ptr %5, i64 %10
  %12 = load i32, ptr %11, align 4, !tbaa !32
  %13 = and i32 %8, 31
  %14 = lshr i32 %12, %13
  %15 = and i32 %14, 1
  ret i32 %15
}